; Function Attrs: nounwind uwtable
define zeroext range(i8 0, 2) i8 @l___private_Lean_Elab_PatternVar_0__Lean_Elab_Term_CollectPatternVars_isDone(ptr noundef readonly captures(none) %0) local_unnamed_addr #0 {
  %2 = getelementptr inbounds nuw i8, ptr %0, i64 24
  %3 = load ptr, ptr %2, align 8, !tbaa !11
  %4 = getelementptr i8, ptr %3, i64 8
  %.val = load i64, ptr %4, align 8, !tbaa !4
  %5 = shl i64 %.val, 1
  %6 = or disjoint i64 %5, 1
  %7 = inttoptr i64 %6 to ptr
  %8 = getelementptr inbounds nuw i8, ptr %0, i64 32
  %9 = load ptr, ptr %8, align 8, !tbaa !11
  %10 = ptrtoint ptr %9 to i64
  %11 = and i64 %10, 1
  %.not = icmp eq i64 %11, 0
  br i1 %.not, label %.critedge.i, label %12, !prof !14

12:                                               ; preds = %1
  %13 = icmp uge ptr %9, %7
  br label %lean_dec.exit

.critedge.i:                                      ; preds = %1
  %14 = tail call zeroext i1 @lean_nat_big_le(ptr noundef nonnull %7, ptr noundef %9) #6
  br label %lean_dec.exit

lean_dec.exit:                                    ; preds = %.critedge.i, %12
  %.0.i = phi i1 [ %13, %12 ], [ %14, %.critedge.i ]
  %15 = zext i1 %.0.i to i8
  ret i8 %15
}